target datalayout = "e-m:e-p270:32:32-p271:32:32-p272:64:64-i64:64-i128:128-f80:128-n8:16:32:64-S128"
target triple = "x86_64-pc-linux-gnu"

%class.QList.23 = type { %struct.QArrayDataPointer.26 }
%struct.QArrayDataPointer.26 = type { ptr, ptr, i64 }

@_ZTI15QTreeWidgetItem = external constant ptr
@_ZTI27MulticastStatTreeWidgetItem = linkonce_odr constant { ptr, ptr, ptr } { ptr getelementptr inbounds (ptr, ptr @_ZTVN10__cxxabiv120__si_class_type_infoE, i64 2), ptr @_ZTS27MulticastStatTreeWidgetItem, ptr @_ZTI15QTreeWidgetItem }, comdat, align 8

; Function Attrs: mustprogress nounwind uwtable
define linkonce_odr void @_ZN17QArrayDataPointerI8QVariantEC2Ev(ptr noundef nonnull align 8 dereferenceable(24) %0) unnamed_addr #2 comdat align 2 {
  %2 = alloca ptr, align 8
  store ptr %0, ptr %2, align 8
  %3 = load ptr, ptr %2, align 8
  %4 = getelementptr inbounds %struct.QArrayDataPointer.26, ptr %3, i32 0, i32 0
  store ptr null, ptr %4, align 8
  %5 = getelementptr inbounds %struct.QArrayDataPointer.26, ptr %3, i32 0, i32 1
  store ptr null, ptr %5, align 8
  %6 = getelementptr inbounds %struct.QArrayDataPointer.26, ptr %3, i32 0, i32 2
  store i64 0, ptr %6, align 8
  ret void
}

; Function Attrs: mustprogress nounwind uwtable
define linkonce_odr void @_ZN5QListI8QVariantEC2Ev(ptr noundef nonnull align 8 dereferenceable(24) %0) unnamed_addr #2 comdat align 2 {
  %2 = alloca ptr, align 8
  store ptr %0, ptr %2, align 8
  %3 = load ptr, ptr %2, align 8
  %4 = getelementptr inbounds %class.QList.23, ptr %3, i32 0, i32 0
  call void @_ZN17QArrayDataPointerI8QVariantEC2Ev(ptr noundef nonnull align 8 dereferenceable(24) %4) #15
  ret void
}

; Function Attrs: mustprogress uwtable
define void @_ZNK25MulticastStatisticsDialog12treeItemDataEP15QTreeWidgetItem(ptr dead_on_unwind noalias writable sret(%class.QList.23) align 8 %0, ptr noundef nonnull align 8 dereferenceable(296) %1, ptr noundef %2) unnamed_addr #0 align 2 {
  %4 = alloca ptr, align 8
  %5 = alloca ptr, align 8
  %6 = alloca ptr, align 8
  %7 = alloca ptr, align 8
  store ptr %0, ptr %4, align 8
  store ptr %1, ptr %5, align 8
  store ptr %2, ptr %6, align 8
  %8 = load ptr, ptr %6, align 8
  %9 = icmp eq ptr %8, null
  br i1 %9, label %12, label %10

10:                                               ; preds = %3
  %11 = call ptr @__dynamic_cast(ptr %8, ptr @_ZTI15QTreeWidgetItem, ptr @_ZTI27MulticastStatTreeWidgetItem, i64 0) #15
  br label %13

12:                                               ; preds = %3
  br label %13

13:                                               ; preds = %12, %10
  %14 = phi ptr [ %11, %10 ], [ null, %12 ]
  store ptr %14, ptr %7, align 8
  %15 = load ptr, ptr %7, align 8
  %16 = icmp ne ptr %15, null
  br i1 %16, label %17, label %19

17:                                               ; preds = %13
  %18 = load ptr, ptr %7, align 8
  call void @_ZN27MulticastStatTreeWidgetItem7rowDataEv(ptr dead_on_unwind writable sret(%class.QList.23) align 8 %0, ptr noundef nonnull align 8 dereferenceable(200) %18)
  br label %20

19:                                               ; preds = %13
  call void @llvm.memset.p0.i64(ptr align 8 %0, i8 0, i64 24, i1 false)
  call void @_ZN5QListI8QVariantEC2Ev(ptr noundef nonnull align 8 dereferenceable(24) %0) #15
  br label %20

20:                                               ; preds = %19, %17
  ret void
}